target datalayout = "e-m:e-p270:32:32-p271:32:32-p272:64:64-i64:64-i128:128-f80:128-n8:16:32:64-S128"
target triple = "x86_64-pc-linux-gnu"

@.str.1 = private unnamed_addr constant [12 x i8] c"lsyscache.c\00", align 1
@.str.2 = private unnamed_addr constant [52 x i8] c"cache lookup failed for attribute %d of relation %u\00", align 1
@__func__.get_attoptions = private unnamed_addr constant [15 x i8] c"get_attoptions\00", align 1

; Function Attrs: inlinehint nounwind uwtable
define internal i64 @Int16GetDatum(i16 noundef signext %0) #2 {
  %2 = alloca i16, align 2
  store i16 %0, ptr %2, align 2
  %3 = load i16, ptr %2, align 2
  %4 = sext i16 %3 to i64
  ret i64 %4
}

; Function Attrs: inlinehint nounwind uwtable
define internal i64 @ObjectIdGetDatum(i32 noundef %0) #2 {
  %2 = alloca i32, align 4
  store i32 %0, ptr %2, align 4
  %3 = load i32, ptr %2, align 4
  %4 = zext i32 %3 to i64
  ret i64 %4
}

; Function Attrs: nounwind uwtable
define dso_local i64 @get_attoptions(i32 noundef %0, i16 noundef signext %1) #0 {
  %3 = alloca i32, align 4
  %4 = alloca i16, align 2
  %5 = alloca ptr, align 8
  %6 = alloca i64, align 8
  %7 = alloca i64, align 8
  %8 = alloca i8, align 1
  store i32 %0, ptr %3, align 4
  store i16 %1, ptr %4, align 2
  call void @llvm.lifetime.start.p0(i64 8, ptr %5) #7
  call void @llvm.lifetime.start.p0(i64 8, ptr %6) #7
  call void @llvm.lifetime.start.p0(i64 8, ptr %7) #7
  call void @llvm.lifetime.start.p0(i64 1, ptr %8) #7
  %9 = load i32, ptr %3, align 4
  %10 = call i64 @ObjectIdGetDatum(i32 noundef %9)
  %11 = load i16, ptr %4, align 2
  %12 = call i64 @Int16GetDatum(i16 noundef signext %11)
  %13 = call ptr @SearchSysCache2(i32 noundef 7, i64 noundef %10, i64 noundef %12)
  store ptr %13, ptr %5, align 8
  %14 = load ptr, ptr %5, align 8
  %15 = icmp ne ptr %14, null
  br i1 %15, label %30, label %16

16:                                               ; preds = %2
  br label %17

17:                                               ; preds = %16
  br i1 true, label %18, label %20

18:                                               ; preds = %17
  %19 = call zeroext i1 @errstart_cold(i32 noundef 21, ptr noundef null) #8
  br i1 %19, label %22, label %27

20:                                               ; preds = %17
  %21 = call zeroext i1 @errstart(i32 noundef 21, ptr noundef null)
  br i1 %21, label %22, label %27

22:                                               ; preds = %20, %18
  %23 = load i16, ptr %4, align 2
  %24 = sext i16 %23 to i32
  %25 = load i32, ptr %3, align 4
  %26 = call i32 (ptr, ...) @errmsg_internal(ptr noundef @.str.2, i32 noundef %24, i32 noundef %25)
  call void @errfinish(ptr noundef @.str.1, i32 noundef 984, ptr noundef @__func__.get_attoptions)
  br label %27

27:                                               ; preds = %22, %20, %18
  unreachable

28:                                               ; No predecessors!
  br label %29

29:                                               ; preds = %28
  br label %30

30:                                               ; preds = %29, %2
  %31 = load ptr, ptr %5, align 8
  %32 = call i64 @SysCacheGetAttr(i32 noundef 6, ptr noundef %31, i16 noundef signext 23, ptr noundef %8)
  store i64 %32, ptr %6, align 8
  %33 = load i8, ptr %8, align 1, !range !4, !noundef !5
  %34 = trunc i8 %33 to i1
  br i1 %34, label %35, label %36

35:                                               ; preds = %30
  store i64 0, ptr %7, align 8
  br label %39

36:                                               ; preds = %30
  %37 = load i64, ptr %6, align 8
  %38 = call i64 @datumCopy(i64 noundef %37, i1 noundef zeroext false, i32 noundef -1)
  store i64 %38, ptr %7, align 8
  br label %39

39:                                               ; preds = %36, %35
  %40 = load ptr, ptr %5, align 8
  call void @ReleaseSysCache(ptr noundef %40)
  %41 = load i64, ptr %7, align 8
  call void @llvm.lifetime.end.p0(i64 1, ptr %8) #7
  call void @llvm.lifetime.end.p0(i64 8, ptr %7) #7
  call void @llvm.lifetime.end.p0(i64 8, ptr %6) #7
  call void @llvm.lifetime.end.p0(i64 8, ptr %5) #7
  ret i64 %41
}