; Function Attrs: nounwind uwtable
define dso_local i64 @get_attoptions(i32 noundef %0, i16 noundef signext %1) local_unnamed_addr #0 {
  %3 = alloca i8, align 1
  call void @llvm.lifetime.start.p0(i64 1, ptr nonnull %3) #8
  %4 = zext i32 %0 to i64
  %5 = sext i16 %1 to i64
  %6 = tail call ptr @SearchSysCache2(i32 noundef 7, i64 noundef %4, i64 noundef %5) #8
  %.not = icmp eq ptr %6, null
  br i1 %.not, label %7, label %11

7:                                                ; preds = %2
  %8 = tail call zeroext i1 @errstart_cold(i32 noundef 21, ptr noundef null) #9
  tail call void @llvm.assume(i1 %8)
  %9 = sext i16 %1 to i32
  %10 = tail call i32 (ptr, ...) @errmsg_internal(ptr noundef nonnull @.str.2, i32 noundef %9, i32 noundef %0) #8
  tail call void @errfinish(ptr noundef nonnull @.str.1, i32 noundef 984, ptr noundef nonnull @__func__.get_attoptions) #8
  unreachable

11:                                               ; preds = %2
  %12 = call i64 @SysCacheGetAttr(i32 noundef 6, ptr noundef nonnull %6, i16 noundef signext 23, ptr noundef nonnull %3) #8
  %13 = load i8, ptr %3, align 1, !range !14, !noundef !15
  %14 = trunc nuw i8 %13 to i1
  br i1 %14, label %17, label %15

15:                                               ; preds = %11
  %16 = call i64 @datumCopy(i64 noundef %12, i1 noundef zeroext false, i32 noundef -1) #8
  br label %17

17:                                               ; preds = %11, %15
  %.0 = phi i64 [ %16, %15 ], [ 0, %11 ]
  call void @ReleaseSysCache(ptr noundef nonnull %6) #8
  call void @llvm.lifetime.end.p0(i64 1, ptr nonnull %3) #8
  ret i64 %.0
}